(lp1
(lp2
I58
aI8
aI0
aI0
aa(lp3
I116
aI15
aI0
aI0
aa(lp4
I45
aI7
aI0
aI0
aa(lp5
I170
aI23
aI0
aI2
aa(lp6
I68
aI14
aI0
aI0
aa(lp7
I113
aI12
aI0
aI0
aa(lp8
I84
aI9
aI0
aI0
aa(lp9
I65
aI11
aI0
aI0
aa(lp10
I71
aI7
aI0
aI0
aa(lp11
I65
aI14
aI0
aI0
aa(lp12
I82
aI18
aI0
aI0
aa(lp13
I74
aI13
aI0
aI0
aa(lp14
I163
aI25
aI0
aI0
aa(lp15
I65
aI11
aI0
aI0
aa(lp16
I125
aI22
aI0
aI0
aa(lp17
I45
aI6
aI0
aI0
aa(lp18
I114
aI19
aI0
aI0
aa(lp19
I68
aI9
aI0
aI0
aa(lp20
I85
aI16
aI0
aI0
aa(lp21
I114
aI19
aI0
aI0
aa(lp22
I84
aI6
aI0
aI0
aa(lp23
I121
aI15
aI0
aI0
aa(lp24
I82
aI12
aI0
aI0
aa(lp25
I57
aI7
aI0
aI0
aa(lp26
I54
aI9
aI0
aI0
aa(lp27
I72
aI14
aI0
aI0
aa(lp28
I52
aI7
aI0
aI0
aa(lp29
I99
aI16
aI0
aI0
aa(lp30
I83
aI11
aI0
aI0
aa(lp31
I89
aI12
aI0
aI0
aa(lp32
I95
aI21
aI0
aI0
aa(lp33
I141
aI19
aI0
aI0
aa(lp34
I145
aI27
aI0
aI0
aa(lp35
I65
aI12
aI0
aI0
aa(lp36
I68
aI12
aI0
aI0
aa(lp37
I57
aI6
aI0
aI0
aa(lp38
I44
aI2
aI0
aI0
aa(lp39
I31
aI2
aI0
aI0
aa(lp40
I92
aI9
aI0
aI0
aa(lp41
I94
aI15
aI0
aI0
aa(lp42
I130
aI18
aI0
aI0
aa(lp43
I110
aI13
aI0
aI0
aa(lp44
I61
aI7
aI0
aI0
aa(lp45
I105
aI16
aI0
aI0
aa(lp46
I96
aI10
aI0
aI0
aa(lp47
I40
aI8
aI0
aI0
aa(lp48
I59
aI9
aI0
aI2
aa(lp49
I74
aI12
aI0
aI0
aa(lp50
I155
aI25
aI0
aI0
aa(lp51
I81
aI12
aI0
aI0
aa(lp52
I39
aI3
aI0
aI0
aa(lp53
I80
aI15
aI0
aI0
aa(lp54
I46
aI3
aI0
aI0
aa(lp55
I114
aI21
aI0
aI0
aa(lp56
I110
aI16
aI0
aI0
aa(lp57
I102
aI12
aI0
aI0
aa(lp58
I54
aI10
aI0
aI0
aa(lp59
I210
aI22
aI0
aI0
aa(lp60
I96
aI20
aI0
aI0
aa(lp61
I37
aI4
aI0
aI0
aa(lp62
I56
aI7
aI0
aI0
aa(lp63
I118
aI14
aI0
aI2
aa(lp64
I121
aI20
aI0
aI0
aa(lp65
I74
aI12
aI0
aI0
aa(lp66
I71
aI12
aI0
aI0
aa(lp67
I45
aI9
aI0
aI0
aa(lp68
I53
aI6
aI0
aI2
aa(lp69
I73
aI15
aI0
aI0
aa(lp70
I61
aI5
aI0
aI0
aa(lp71
I77
aI8
aI0
aI0
aa(lp72
I120
aI17
aI0
aI0
aa(lp73
I127
aI25
aI0
aI0
aa(lp74
I54
aI11
aI0
aI0
aa(lp75
I75
aI5
aI0
aI0
aa(lp76
I192
aI20
aI0
aI0
aa(lp77
I66
aI6
aI0
aI0
aa(lp78
I90
aI15
aI0
aI0
aa(lp79
I53
aI4
aI0
aI0
aa(lp80
I77
aI14
aI0
aI0
aa(lp81
I93
aI23
aI0
aI0
aa(lp82
I126
aI14
aI0
aI0
aa(lp83
I98
aI13
aI0
aI0
aa(lp84
I83
aI17
aI0
aI0
aa(lp85
I79
aI9
aI0
aI0
aa(lp86
I66
aI13
aI0
aI0
aa(lp87
I52
aI10
aI0
aI0
aa(lp88
I43
aI4
aI0
aI0
aa(lp89
I86
aI18
aI0
aI0
aa(lp90
I33
aI4
aI0
aI0
aa(lp91
I52
aI5
aI0
aI0
aa(lp92
I70
aI12
aI0
aI0
aa(lp93
I124
aI9
aI0
aI2
aa(lp94
I79
aI11
aI0
aI0
aa(lp95
I68
aI14
aI0
aI0
aa(lp96
I88
aI19
aI0
aI0
aa(lp97
I14
aI3
aI0
aI0
aa(lp98
I40
aI5
aI0
aI0
aa(lp99
I44
aI4
aI0
aI0
aa(lp100
I53
aI10
aI0
aI0
aa(lp101
I84
aI12
aI0
aI0
aa(lp102
I119
aI20
aI0
aI0
aa(lp103
I80
aI8
aI0
aI0
aa(lp104
I33
aI10
aI0
aI0
aa(lp105
I116
aI16
aI0
aI0
aa(lp106
I91
aI20
aI0
aI0
aa(lp107
I121
aI8
aI0
aI0
aa(lp108
I75
aI10
aI0
aI0
aa(lp109
I99
aI13
aI0
aI0
aa(lp110
I84
aI10
aI0
aI0
aa(lp111
I107
aI17
aI0
aI0
aa(lp112
I89
aI14
aI0
aI0
aa(lp113
I52
aI9
aI0
aI0
aa(lp114
I16
aI4
aI0
aI0
aa(lp115
I52
aI11
aI0
aI0
aa(lp116
I83
aI10
aI0
aI0
aa(lp117
I43
aI0
aI0
aI0
aa(lp118
I75
aI9
aI0
aI0
aa(lp119
I100
aI17
aI0
aI0
aa(lp120
I98
aI10
aI0
aI0
aa(lp121
I81
aI22
aI0
aI0
aa(lp122
I80
aI14
aI0
aI0
aa(lp123
I74
aI9
aI0
aI0
aa(lp124
I106
aI13
aI0
aI0
aa(lp125
I116
aI15
aI0
aI0
aa(lp126
I64
aI17
aI0
aI0
aa(lp127
I102
aI7
aI0
aI0
aa(lp128
I78
aI11
aI0
aI0
aa(lp129
I100
aI18
aI0
aI0
aa(lp130
I111
aI22
aI0
aI0
aa(lp131
I119
aI17
aI0
aI8
aa(lp132
I90
aI11
aI0
aI0
aa(lp133
I62
aI9
aI0
aI0
aa(lp134
I54
aI11
aI0
aI0
aa(lp135
I153
aI19
aI0
aI0
aa(lp136
I101
aI18
aI0
aI0
aa(lp137
I61
aI13
aI0
aI0
aa(lp138
I55
aI8
aI0
aI0
aa(lp139
I87
aI11
aI0
aI0
aa(lp140
I74
aI5
aI0
aI0
aa(lp141
I121
aI13
aI0
aI0
aa(lp142
I52
aI7
aI0
aI0
aa(lp143
I70
aI12
aI0
aI0
aa(lp144
I82
aI11
aI0
aI0
aa(lp145
I141
aI26
aI0
aI0
aa(lp146
I65
aI12
aI0
aI0
aa(lp147
I55
aI8
aI0
aI0
aa(lp148
I112
aI10
aI0
aI0
aa(lp149
I87
aI16
aI0
aI0
aa(lp150
I34
aI7
aI0
aI0
aa(lp151
I79
aI9
aI0
aI0
aa(lp152
I48
aI11
aI0
aI0
aa(lp153
I111
aI20
aI0
aI0
aa(lp154
I84
aI9
aI0
aI0
aa(lp155
I117
aI13
aI0
aI0
aa(lp156
I71
aI10
aI0
aI0
aa(lp157
I89
aI9
aI0
aI0
aa(lp158
I114
aI8
aI0
aI0
aa(lp159
I38
aI5
aI0
aI0
aa(lp160
I64
aI9
aI0
aI0
aa(lp161
I81
aI11
aI0
aI0
aa(lp162
I53
aI9
aI0
aI0
aa(lp163
I44
aI9
aI0
aI0
aa(lp164
I116
aI17
aI0
aI0
aa(lp165
I56
aI6
aI0
aI0
aa(lp166
I60
aI7
aI0
aI0
aa(lp167
I78
aI7
aI0
aI0
aa(lp168
I77
aI11
aI0
aI0
aa(lp169
I44
aI4
aI0
aI0
aa(lp170
I107
aI10
aI0
aI0
aa(lp171
I87
aI15
aI0
aI0
aa(lp172
I68
aI14
aI0
aI0
aa(lp173
I122
aI12
aI0
aI0
aa(lp174
I95
aI19
aI0
aI0
aa(lp175
I83
aI13
aI0
aI0
aa(lp176
I75
aI17
aI0
aI0
aa(lp177
I134
aI19
aI0
aI0
aa(lp178
I76
aI6
aI0
aI0
aa(lp179
I137
aI25
aI0
aI0
aa(lp180
I72
aI9
aI0
aI0
aa(lp181
I104
aI24
aI0
aI0
aa(lp182
I103
aI11
aI0
aI0
aa(lp183
I50
aI7
aI0
aI0
aa(lp184
I39
aI4
aI0
aI0
aa(lp185
I74
aI8
aI0
aI0
aa(lp186
I73
aI13
aI0
aI0
aa(lp187
I58
aI8
aI0
aI0
aa(lp188
I70
aI9
aI0
aI0
aa(lp189
I77
aI10
aI0
aI0
aa(lp190
I53
aI6
aI0
aI0
aa(lp191
I72
aI14
aI0
aI0
aa(lp192
I92
aI14
aI0
aI0
aa(lp193
I67
aI5
aI0
aI0
aa(lp194
I61
aI9
aI0
aI0
aa(lp195
I33
aI2
aI0
aI0
aa(lp196
I57
aI8
aI0
aI0
aa(lp197
I66
aI7
aI0
aI0
aa(lp198
I59
aI14
aI0
aI0
aa(lp199
I29
aI0
aI0
aI0
aa(lp200
I66
aI6
aI0
aI0
aa(lp201
I98
aI16
aI0
aI0
aa(lp202
I113
aI9
aI0
aI0
aa(lp203
I45
aI9
aI0
aI0
aa(lp204
I61
aI7
aI0
aI0
aa(lp205
I63
aI14
aI0
aI0
aa(lp206
I57
aI8
aI0
aI0
aa(lp207
I61
aI11
aI0
aI0
aa(lp208
I184
aI22
aI0
aI0
aa(lp209
I61
aI7
aI0
aI0
aa(lp210
I77
aI10
aI0
aI0
aa(lp211
I51
aI5
aI0
aI0
aa(lp212
I61
aI9
aI0
aI0
aa(lp213
I65
aI9
aI0
aI0
aa(lp214
I67
aI11
aI0
aI0
aa(lp215
I73
aI11
aI0
aI0
aa(lp216
I113
aI12
aI0
aI0
aa(lp217
I75
aI13
aI0
aI0
aa(lp218
I62
aI10
aI0
aI0
aa(lp219
I73
aI15
aI0
aI0
aa(lp220
I102
aI18
aI0
aI0
aa(lp221
I132
aI17
aI0
aI0
aa(lp222
I62
aI4
aI0
aI0
aa(lp223
I61
aI9
aI0
aI0
aa(lp224
I41
aI5
aI0
aI0
aa(lp225
I67
aI8
aI0
aI0
aa(lp226
I75
aI13
aI0
aI0
aa(lp227
I82
aI14
aI0
aI0
aa(lp228
I118
aI15
aI0
aI0
aa(lp229
I67
aI8
aI0
aI0
aa(lp230
I171
aI20
aI0
aI0
aa(lp231
I70
aI11
aI0
aI0
aa(lp232
I171
aI22
aI0
aI0
aa(lp233
I56
aI9
aI0
aI0
aa(lp234
I58
aI5
aI0
aI0
aa(lp235
I61
aI9
aI0
aI0
aa(lp236
I78
aI10
aI0
aI0
aa(lp237
I64
aI5
aI0
aI0
aa(lp238
I139
aI17
aI0
aI0
aa(lp239
I39
aI2
aI0
aI0
aa(lp240
I111
aI5
aI0
aI0
aa(lp241
I90
aI14
aI0
aI2
aa(lp242
I141
aI15
aI0
aI0
aa(lp243
I53
aI10
aI0
aI0
aa(lp244
I108
aI19
aI0
aI0
aa(lp245
I124
aI21
aI0
aI0
aa(lp246
I64
aI8
aI0
aI0
aa(lp247
I85
aI7
aI0
aI0
aa(lp248
I90
aI4
aI0
aI0
aa(lp249
I147
aI30
aI0
aI0
aa(lp250
I98
aI16
aI0
aI0
aa(lp251
I56
aI13
aI0
aI0
aa(lp252
I45
aI13
aI0
aI0
aa(lp253
I123
aI18
aI0
aI2
aa(lp254
I83
aI6
aI0
aI0
aa(lp255
I76
aI14
aI0
aI0
aa(lp256
I75
aI7
aI0
aI0
aa(lp257
I94
aI16
aI0
aI0
aa(lp258
I76
aI19
aI0
aI0
aa(lp259
I52
aI7
aI0
aI0
aa(lp260
I73
aI15
aI0
aI0
aa(lp261
I42
aI10
aI0
aI2
aa(lp262
I123
aI11
aI0
aI0
aa(lp263
I28
aI5
aI0
aI0
aa(lp264
I50
aI7
aI0
aI0
aa(lp265
I65
aI5
aI0
aI0
aa(lp266
I66
aI10
aI0
aI0
aa(lp267
I82
aI17
aI0
aI0
aa(lp268
I28
aI5
aI0
aI0
aa(lp269
I100
aI12
aI0
aI0
aa(lp270
I37
aI0
aI0
aI0
aa(lp271
I84
aI11
aI0
aI0
aa(lp272
I51
aI10
aI0
aI0
aa(lp273
I96
aI15
aI0
aI0
aa(lp274
I63
aI9
aI0
aI0
aa(lp275
I102
aI10
aI0
aI0
aa(lp276
I37
aI4
aI0
aI0
aa(lp277
I86
aI12
aI0
aI0
aa(lp278
I75
aI12
aI0
aI2
aa(lp279
I80
aI9
aI0
aI0
aa(lp280
I73
aI16
aI0
aI0
aa(lp281
I65
aI10
aI0
aI0
aa(lp282
I42
aI7
aI0
aI0
aa(lp283
I147
aI24
aI0
aI0
aa(lp284
I54
aI9
aI0
aI0
aa(lp285
I80
aI10
aI0
aI0
aa(lp286
I99
aI14
aI0
aI2
aa(lp287
I111
aI21
aI0
aI0
aa(lp288
I93
aI16
aI0
aI0
aa(lp289
I119
aI8
aI0
aI0
aa(lp290
I55
aI9
aI0
aI0
aa(lp291
I52
aI5
aI0
aI2
aa(lp292
I22
aI3
aI0
aI0
aa(lp293
I62
aI2
aI0
aI0
aa(lp294
I57
aI8
aI0
aI0
aa(lp295
I94
aI17
aI0
aI0
aa(lp296
I51
aI7
aI0
aI0
aa(lp297
I47
aI7
aI0
aI0
aa(lp298
I57
aI10
aI0
aI0
aa(lp299
I87
aI15
aI0
aI0
aa(lp300
I91
aI18
aI0
aI0
aa(lp301
I83
aI17
aI0
aI0
aa(lp302
I176
aI25
aI0
aI0
aa(lp303
I84
aI15
aI0
aI0
aa(lp304
I52
aI9
aI0
aI0
aa(lp305
I115
aI18
aI0
aI0
aa(lp306
I103
aI11
aI0
aI0
aa(lp307
I117
aI10
aI0
aI0
aa(lp308
I62
aI8
aI0
aI0
aa(lp309
I61
aI10
aI0
aI0
aa(lp310
I110
aI14
aI0
aI0
aa(lp311
I59
aI10
aI0
aI0
aa(lp312
I154
aI14
aI0
aI0
aa(lp313
I75
aI11
aI0
aI0
aa(lp314
I50
aI11
aI0
aI0
aa(lp315
I62
aI7
aI0
aI0
aa(lp316
I53
aI4
aI0
aI0
aa(lp317
I93
aI9
aI0
aI0
aa(lp318
I13
aI3
aI0
aI0
aa(lp319
I90
aI10
aI0
aI0
aa(lp320
I93
aI8
aI0
aI0
aa(lp321
I71
aI9
aI0
aI0
aa(lp322
I56
aI12
aI0
aI0
aa(lp323
I90
aI11
aI0
aI0
aa(lp324
I81
aI12
aI0
aI2
aa(lp325
I83
aI14
aI0
aI0
aa(lp326
I51
aI4
aI0
aI0
aa(lp327
I72
aI12
aI0
aI0
aa(lp328
I52
aI10
aI0
aI0
aa(lp329
I125
aI18
aI0
aI0
aa(lp330
I69
aI11
aI0
aI0
aa(lp331
I148
aI19
aI0
aI2
aa(lp332
I66
aI13
aI0
aI0
aa(lp333
I26
aI4
aI0
aI0
aa(lp334
I66
aI8
aI0
aI0
aa(lp335
I118
aI17
aI0
aI4
aa(lp336
I185
aI13
aI0
aI0
aa(lp337
I101
aI14
aI0
aI0
aa(lp338
I40
aI8
aI0
aI0
aa(lp339
I99
aI10
aI0
aI0
aa(lp340
I128
aI18
aI0
aI0
aa(lp341
I96
aI14
aI0
aI0
aa(lp342
I113
aI19
aI0
aI0
aa(lp343
I42
aI8
aI0
aI0
aa(lp344
I103
aI10
aI0
aI0
aa(lp345
I68
aI13
aI0
aI0
aa(lp346
I60
aI12
aI0
aI0
aa(lp347
I95
aI18
aI0
aI0
aa(lp348
I137
aI9
aI0
aI0
aa(lp349
I25
aI4
aI0
aI0
aa(lp350
I76
aI7
aI0
aI0
aa(lp351
I57
aI9
aI0
aI0
aa(lp352
I100
aI10
aI0
aI0
aa(lp353
I70
aI9
aI0
aI0
aa(lp354
I58
aI8
aI0
aI0
aa(lp355
I49
aI4
aI0
aI0
aa(lp356
I72
aI10
aI0
aI0
aa(lp357
I75
aI11
aI0
aI0
aa(lp358
I41
aI4
aI0
aI0
aa(lp359
I38
aI9
aI0
aI0
aa(lp360
I52
aI6
aI0
aI0
aa(lp361
I47
aI12
aI0
aI0
aa(lp362
I31
aI4
aI0
aI0
aa(lp363
I86
aI12
aI0
aI0
aa(lp364
I44
aI4
aI0
aI0
aa(lp365
I82
aI6
aI0
aI0
aa(lp366
I88
aI9
aI0
aI0
aa(lp367
I69
aI5
aI0
aI0
aa(lp368
I122
aI17
aI0
aI0
aa(lp369
I36
aI2
aI0
aI0
aa(lp370
I91
aI14
aI0
aI0
aa(lp371
I42
aI5
aI0
aI0
aa(lp372
I74
aI12
aI0
aI0
aa(lp373
I64
aI9
aI0
aI0
aa(lp374
I56
aI6
aI0
aI0
aa(lp375
I79
aI12
aI0
aI0
aa(lp376
I129
aI15
aI0
aI0
aa(lp377
I26
aI7
aI0
aI0
aa(lp378
I150
aI21
aI0
aI0
aa(lp379
I86
aI14
aI0
aI0
aa(lp380
I38
aI4
aI0
aI0
aa(lp381
I120
aI8
aI0
aI0
aa(lp382
I47
aI4
aI0
aI0
aa(lp383
I77
aI9
aI0
aI0
aa(lp384
I69
aI9
aI0
aI0
aa(lp385
I92
aI19
aI0
aI0
aa(lp386
I125
aI21
aI0
aI0
aa(lp387
I57
aI11
aI0
aI0
aa(lp388
I127
aI18
aI0
aI0
aa(lp389
I43
aI7
aI0
aI0
aa(lp390
I81
aI15
aI0
aI0
aa(lp391
I119
aI6
aI0
aI0
aa(lp392
I67
aI9
aI0
aI0
aa(lp393
I68
aI14
aI0
aI0
aa(lp394
I47
aI8
aI0
aI0
aa(lp395
I34
aI6
aI0
aI0
aa(lp396
I86
aI19
aI0
aI0
aa(lp397
I41
aI6
aI0
aI0
aa(lp398
I70
aI5
aI0
aI0
aa(lp399
I72
aI10
aI0
aI0
aa(lp400
I81
aI10
aI0
aI0
aa(lp401
I92
aI14
aI0
aI0
aa(lp402
I55
aI9
aI0
aI0
aa(lp403
I47
aI8
aI0
aI0
aa(lp404
I34
aI4
aI0
aI0
aa(lp405
I80
aI14
aI0
aI0
aa(lp406
I81
aI16
aI0
aI0
aa(lp407
I49
aI6
aI0
aI0
aa(lp408
I113
aI10
aI0
aI0
aa(lp409
I98
aI15
aI0
aI0
aa(lp410
I111
aI20
aI0
aI0
aa(lp411
I37
aI3
aI0
aI0
aa(lp412
I43
aI6
aI0
aI0
aa(lp413
I78
aI4
aI0
aI0
aa(lp414
I75
aI12
aI0
aI0
aa(lp415
I85
aI12
aI0
aI0
aa(lp416
I34
aI8
aI0
aI0
aa(lp417
I73
aI5
aI0
aI0
aa(lp418
I84
aI10
aI0
aI0
aa(lp419
I117
aI12
aI0
aI0
aa(lp420
I68
aI17
aI0
aI0
aa(lp421
I77
aI10
aI0
aI0
aa(lp422
I55
aI7
aI0
aI0
aa(lp423
I109
aI19
aI0
aI0
aa(lp424
I62
aI14
aI0
aI0
aa(lp425
I155
aI12
aI0
aI0
aa(lp426
I69
aI7
aI0
aI0
aa(lp427
I137
aI14
aI0
aI0
aa(lp428
I65
aI13
aI0
aI0
aa(lp429
I50
aI7
aI0
aI0
aa(lp430
I51
aI10
aI0
aI0
aa(lp431
I152
aI22
aI0
aI0
aa(lp432
I147
aI13
aI0
aI0
aa(lp433
I139
aI8
aI0
aI0
aa(lp434
I71
aI10
aI0
aI0
aa(lp435
I83
aI16
aI0
aI0
aa(lp436
I60
aI9
aI0
aI0
aa(lp437
I47
aI4
aI0
aI0
aa(lp438
I103
aI12
aI0
aI0
aa(lp439
I122
aI25
aI0
aI0
aa(lp440
I49
aI6
aI0
aI0
aa(lp441
I132
aI13
aI0
aI0
aa(lp442
I87
aI18
aI0
aI0
aa(lp443
I22
aI2
aI0
aI0
aa(lp444
I89
aI13
aI0
aI0
aa(lp445
I98
aI13
aI0
aI0
aa(lp446
I61
aI11
aI0
aI0
aa(lp447
I48
aI7
aI0
aI0
aa(lp448
I168
aI20
aI0
aI0
aa(lp449
I72
aI14
aI0
aI0
aa(lp450
I39
aI7
aI0
aI0
aa(lp451
I35
aI6
aI0
aI0
aa(lp452
I55
aI11
aI0
aI0
aa(lp453
I114
aI18
aI0
aI0
aa(lp454
I107
aI25
aI0
aI0
aa(lp455
I36
aI14
aI0
aI0
aa(lp456
I98
aI10
aI0
aI0
aa(lp457
I118
aI10
aI0
aI0
aa(lp458
I84
aI12
aI0
aI0
aa(lp459
I93
aI19
aI0
aI0
aa(lp460
I46
aI6
aI0
aI0
aa(lp461
I69
aI12
aI0
aI0
aa(lp462
I89
aI7
aI0
aI0
aa(lp463
I86
aI6
aI0
aI0
aa(lp464
I70
aI8
aI0
aI0
aa(lp465
I108
aI17
aI0
aI0
aa(lp466
I79
aI9
aI0
aI0
aa(lp467
I53
aI8
aI0
aI0
aa(lp468
I89
aI13
aI0
aI0
aa(lp469
I40
aI7
aI0
aI0
aa(lp470
I73
aI12
aI0
aI0
aa(lp471
I138
aI20
aI0
aI0
aa(lp472
I75
aI6
aI0
aI0
aa(lp473
I85
aI8
aI0
aI2
aa(lp474
I63
aI11
aI0
aI0
aa(lp475
I93
aI12
aI0
aI0
aa(lp476
I92
aI11
aI0
aI0
aa(lp477
I64
aI10
aI0
aI0
aa(lp478
I85
aI16
aI0
aI0
aa(lp479
I69
aI13
aI0
aI0
aa(lp480
I86
aI11
aI0
aI0
aa(lp481
I39
aI7
aI0
aI0
aa(lp482
I54
aI8
aI0
aI0
aa(lp483
I54
aI8
aI0
aI0
aa(lp484
I59
aI12
aI0
aI0
aa(lp485
I89
aI10
aI0
aI0
aa(lp486
I87
aI12
aI0
aI0
aa(lp487
I71
aI10
aI0
aI0
aa(lp488
I48
aI10
aI0
aI0
aa(lp489
I61
aI11
aI0
aI0
aa(lp490
I71
aI16
aI0
aI0
aa(lp491
I64
aI7
aI0
aI0
aa(lp492
I109
aI19
aI0
aI0
aa(lp493
I114
aI19
aI0
aI0
aa(lp494
I42
aI10
aI0
aI0
aa(lp495
I72
aI13
aI0
aI0
aa(lp496
I67
aI11
aI0
aI0
aa(lp497
I74
aI11
aI0
aI0
aa(lp498
I79
aI9
aI0
aI4
aa(lp499
I66
aI11
aI0
aI0
aa(lp500
I231
aI21
aI0
aI0
aa(lp501
I67
aI12
aI0
aI0
aa(lp502
I71
aI13
aI0
aI0
aa(lp503
I63
aI13
aI0
aI0
aa(lp504
I124
aI17
aI0
aI2
aa(lp505
I62
aI15
aI0
aI0
aa(lp506
I120
aI14
aI0
aI0
aa(lp507
I59
aI13
aI0
aI0
aa(lp508
I100
aI9
aI0
aI0
aa(lp509
I35
aI5
aI0
aI0
aa(lp510
I57
aI7
aI0
aI0
aa(lp511
I98
aI20
aI0
aI0
aa(lp512
I145
aI21
aI0
aI0
aa(lp513
I37
aI3
aI0
aI0
aa(lp514
I135
aI16
aI0
aI0
aa(lp515
I28
aI4
aI0
aI0
aa(lp516
I66
aI12
aI0
aI0
aa(lp517
I127
aI16
aI0
aI0
aa(lp518
I86
aI6
aI0
aI0
aa(lp519
I108
aI12
aI0
aI0
aa(lp520
I74
aI12
aI0
aI0
aa(lp521
I59
aI9
aI0
aI0
aa(lp522
I37
aI2
aI0
aI0
aa(lp523
I91
aI18
aI0
aI0
aa(lp524
I108
aI20
aI0
aI0
aa(lp525
I35
aI5
aI0
aI0
aa(lp526
I50
aI5
aI0
aI0
aa(lp527
I84
aI8
aI0
aI0
aa(lp528
I77
aI16
aI0
aI0
aa(lp529
I107
aI14
aI0
aI0
aa(lp530
I107
aI15
aI0
aI0
aa(lp531
I81
aI18
aI0
aI0
aa(lp532
I68
aI11
aI0
aI4
aa(lp533
I44
aI8
aI0
aI0
aa(lp534
I108
aI10
aI0
aI0
aa(lp535
I56
aI7
aI0
aI0
aa(lp536
I143
aI21
aI0
aI0
aa(lp537
I82
aI9
aI0
aI0
aa(lp538
I136
aI16
aI0
aI0
aa(lp539
I94
aI12
aI0
aI0
aa(lp540
I26
aI4
aI0
aI0
aa(lp541
I88
aI15
aI0
aI0
aa(lp542
I59
aI8
aI0
aI4
aa(lp543
I101
aI16
aI0
aI0
aa(lp544
I37
aI6
aI0
aI0
aa(lp545
I61
aI14
aI0
aI0
aa(lp546
I144
aI18
aI0
aI0
aa(lp547
I121
aI29
aI0
aI0
aa(lp548
I41
aI10
aI0
aI0
aa(lp549
I67
aI14
aI0
aI0
aa(lp550
I70
aI11
aI0
aI0
aa(lp551
I57
aI5
aI0
aI4
aa(lp552
I35
aI6
aI0
aI0
aa(lp553
I94
aI17
aI0
aI0
aa(lp554
I153
aI20
aI0
aI0
aa.